target datalayout = "e-m:e-p270:32:32-p271:32:32-p272:64:64-i64:64-i128:128-f80:128-n8:16:32:64-S128"
target triple = "x86_64-pc-linux-gnu"

%union.ListCell = type { ptr }
%struct.JsonReturning = type { i32, ptr, i32, i32 }
%struct.JsonParseExpr = type { i32, ptr, ptr, i8, i32 }
%struct.JsonValueExpr = type { i32, ptr, ptr, ptr }

@.str.41 = private unnamed_addr constant [13 x i8] c"parse_expr.c\00", align 1
@.str.157 = private unnamed_addr constant [7 x i8] c"JSON()\00", align 1
@.str.158 = private unnamed_addr constant [57 x i8] c"cannot use non-string types with WITH UNIQUE KEYS clause\00", align 1
@__func__.transformJsonParseExpr = private unnamed_addr constant [23 x i8] c"transformJsonParseExpr\00", align 1

; Function Attrs: nounwind uwtable
define internal ptr @transformJsonParseExpr(ptr noundef %0, ptr noundef %1) #0 {
  %3 = alloca ptr, align 8
  %4 = alloca ptr, align 8
  %5 = alloca ptr, align 8
  %6 = alloca ptr, align 8
  %7 = alloca ptr, align 8
  %8 = alloca ptr, align 8
  %9 = alloca i32, align 4
  %10 = alloca %union.ListCell, align 8
  store ptr %0, ptr %3, align 8
  store ptr %1, ptr %4, align 8
  call void @llvm.lifetime.start.p0(i64 8, ptr %5) #8
  %11 = load ptr, ptr %4, align 8
  %12 = getelementptr inbounds nuw %struct.JsonParseExpr, ptr %11, i32 0, i32 2
  %13 = load ptr, ptr %12, align 8
  store ptr %13, ptr %5, align 8
  call void @llvm.lifetime.start.p0(i64 8, ptr %6) #8
  call void @llvm.lifetime.start.p0(i64 8, ptr %7) #8
  %14 = load ptr, ptr %3, align 8
  %15 = load ptr, ptr %5, align 8
  %16 = call ptr @transformJsonReturning(ptr noundef %14, ptr noundef %15, ptr noundef @.str.157)
  store ptr %16, ptr %6, align 8
  %17 = load ptr, ptr %4, align 8
  %18 = getelementptr inbounds nuw %struct.JsonParseExpr, ptr %17, i32 0, i32 3
  %19 = load i8, ptr %18, align 8, !range !6, !noundef !7
  %20 = trunc i8 %19 to i1
  br i1 %20, label %21, label %53

21:                                               ; preds = %2
  call void @llvm.lifetime.start.p0(i64 8, ptr %8) #8
  %22 = load ptr, ptr %4, align 8
  %23 = getelementptr inbounds nuw %struct.JsonParseExpr, ptr %22, i32 0, i32 1
  %24 = load ptr, ptr %23, align 8
  store ptr %24, ptr %8, align 8
  call void @llvm.lifetime.start.p0(i64 4, ptr %9) #8
  %25 = load ptr, ptr %3, align 8
  %26 = load ptr, ptr %8, align 8
  %27 = getelementptr inbounds nuw %struct.JsonValueExpr, ptr %26, i32 0, i32 1
  %28 = load ptr, ptr %27, align 8
  %29 = load ptr, ptr %8, align 8
  %30 = getelementptr inbounds nuw %struct.JsonValueExpr, ptr %29, i32 0, i32 3
  %31 = load ptr, ptr %30, align 8
  %32 = call ptr @transformJsonParseArg(ptr noundef %25, ptr noundef %28, ptr noundef %31, ptr noundef %9)
  store ptr %32, ptr %7, align 8
  %33 = load i32, ptr %9, align 4
  %34 = icmp ne i32 %33, 25
  br i1 %34, label %35, label %52

35:                                               ; preds = %21
  br label %36

36:                                               ; preds = %35
  br i1 true, label %37, label %39

37:                                               ; preds = %36
  %38 = call zeroext i1 @errstart_cold(i32 noundef 21, ptr noundef null) #9
  br i1 %38, label %41, label %49

39:                                               ; preds = %36
  %40 = call zeroext i1 @errstart(i32 noundef 21, ptr noundef null)
  br i1 %40, label %41, label %49

41:                                               ; preds = %39, %37
  %42 = call i32 @errcode(i32 noundef 67141764)
  %43 = call i32 (ptr, ...) @errmsg(ptr noundef @.str.158)
  %44 = load ptr, ptr %3, align 8
  %45 = load ptr, ptr %4, align 8
  %46 = getelementptr inbounds nuw %struct.JsonParseExpr, ptr %45, i32 0, i32 4
  %47 = load i32, ptr %46, align 4
  %48 = call i32 @parser_errposition(ptr noundef %44, i32 noundef %47)
  call void @errfinish(ptr noundef @.str.41, i32 noundef 4177, ptr noundef @__func__.transformJsonParseExpr)
  br label %49

49:                                               ; preds = %41, %39, %37
  unreachable

50:                                               ; No predecessors!
  br label %51

51:                                               ; preds = %50
  br label %52

52:                                               ; preds = %51, %21
  call void @llvm.lifetime.end.p0(i64 4, ptr %9) #8
  call void @llvm.lifetime.end.p0(i64 8, ptr %8) #8
  br label %62

53:                                               ; preds = %2
  %54 = load ptr, ptr %3, align 8
  %55 = load ptr, ptr %4, align 8
  %56 = getelementptr inbounds nuw %struct.JsonParseExpr, ptr %55, i32 0, i32 1
  %57 = load ptr, ptr %56, align 8
  %58 = load ptr, ptr %6, align 8
  %59 = getelementptr inbounds nuw %struct.JsonReturning, ptr %58, i32 0, i32 2
  %60 = load i32, ptr %59, align 8
  %61 = call ptr @transformJsonValueExpr(ptr noundef %54, ptr noundef @.str.157, ptr noundef %57, i32 noundef 1, i32 noundef %60, i1 noundef zeroext false)
  store ptr %61, ptr %7, align 8
  br label %62

62:                                               ; preds = %53, %52
  %63 = load ptr, ptr %3, align 8
  %64 = load ptr, ptr %7, align 8
  store ptr %64, ptr %10, align 8
  %65 = getelementptr inbounds nuw %union.ListCell, ptr %10, i32 0, i32 0
  %66 = load ptr, ptr %65, align 8
  %67 = call ptr @list_make1_impl(i32 noundef 1, ptr %66)
  %68 = load ptr, ptr %6, align 8
  %69 = load ptr, ptr %4, align 8
  %70 = getelementptr inbounds nuw %struct.JsonParseExpr, ptr %69, i32 0, i32 3
  %71 = load i8, ptr %70, align 8, !range !6, !noundef !7
  %72 = trunc i8 %71 to i1
  %73 = load ptr, ptr %4, align 8
  %74 = getelementptr inbounds nuw %struct.JsonParseExpr, ptr %73, i32 0, i32 4
  %75 = load i32, ptr %74, align 4
  %76 = call ptr @makeJsonConstructorExpr(ptr noundef %63, i32 noundef 5, ptr noundef %67, ptr noundef null, ptr noundef %68, i1 noundef zeroext %72, i1 noundef zeroext false, i32 noundef %75)
  call void @llvm.lifetime.end.p0(i64 8, ptr %7) #8
  call void @llvm.lifetime.end.p0(i64 8, ptr %6) #8
  call void @llvm.lifetime.end.p0(i64 8, ptr %5) #8
  ret ptr %76
}