; Function Attrs: nounwind uwtable
define internal fastcc noundef ptr @transformJsonParseExpr(ptr noundef %0, ptr noundef nonnull readonly captures(none) %1) unnamed_addr #0 {
  %3 = alloca i32, align 4
  %4 = getelementptr inbounds nuw i8, ptr %1, i64 16
  %5 = load ptr, ptr %4, align 8
  %6 = tail call fastcc ptr @transformJsonReturning(ptr noundef %0, ptr noundef %5, ptr noundef nonnull @.str.157)
  %7 = getelementptr inbounds nuw i8, ptr %1, i64 24
  %8 = load i8, ptr %7, align 8, !range !4, !noundef !5
  %9 = trunc nuw i8 %8 to i1
  %10 = getelementptr inbounds nuw i8, ptr %1, i64 8
  %11 = load ptr, ptr %10, align 8
  br i1 %9, label %12, label %27

12:                                               ; preds = %2
  call void @llvm.lifetime.start.p0(i64 4, ptr nonnull %3) #9
  %13 = getelementptr inbounds nuw i8, ptr %11, i64 8
  %14 = load ptr, ptr %13, align 8
  %15 = getelementptr inbounds nuw i8, ptr %11, i64 24
  %16 = load ptr, ptr %15, align 8
  %17 = call fastcc ptr @transformJsonParseArg(ptr noundef %0, ptr noundef %14, ptr noundef %16, ptr noundef %3)
  %18 = load i32, ptr %3, align 4
  %.not = icmp eq i32 %18, 25
  br i1 %.not, label %26, label %19

19:                                               ; preds = %12
  %20 = tail call zeroext i1 @errstart_cold(i32 noundef 21, ptr noundef null) #10
  tail call void @llvm.assume(i1 %20)
  %21 = tail call i32 @errcode(i32 noundef 67141764) #9
  %22 = tail call i32 (ptr, ...) @errmsg(ptr noundef nonnull @.str.158) #9
  %23 = getelementptr inbounds nuw i8, ptr %1, i64 28
  %24 = load i32, ptr %23, align 4
  %25 = tail call i32 @parser_errposition(ptr noundef %0, i32 noundef %24) #9
  tail call void @errfinish(ptr noundef nonnull @.str.41, i32 noundef 4177, ptr noundef nonnull @__func__.transformJsonParseExpr) #9
  unreachable

26:                                               ; preds = %12
  call void @llvm.lifetime.end.p0(i64 4, ptr nonnull %3) #9
  br label %31

27:                                               ; preds = %2
  %28 = getelementptr inbounds nuw i8, ptr %6, i64 16
  %29 = load i32, ptr %28, align 8
  %30 = tail call fastcc ptr @transformJsonValueExpr(ptr noundef %0, ptr noundef nonnull @.str.157, ptr noundef %11, i32 noundef 1, i32 noundef %29, i1 noundef zeroext false)
  br label %31

31:                                               ; preds = %27, %26
  %.0 = phi ptr [ %17, %26 ], [ %30, %27 ]
  %32 = tail call ptr @list_make1_impl(i32 noundef 1, ptr %.0) #9
  %33 = load i8, ptr %7, align 8, !range !4, !noundef !5
  %34 = trunc nuw i8 %33 to i1
  %35 = getelementptr inbounds nuw i8, ptr %1, i64 28
  %36 = load i32, ptr %35, align 4
  %37 = tail call fastcc ptr @makeJsonConstructorExpr(ptr noundef %0, i32 noundef 5, ptr noundef %32, ptr noundef null, ptr noundef %6, i1 noundef zeroext %34, i1 noundef zeroext false, i32 noundef %36)
  ret ptr %37
}